; Function Attrs: mustprogress uwtable
define internal void @"_ZZ14cmUVStreamReadIZN14cmProcessTools10RunProcessER23cmUVProcessChainBuilderPNS0_12OutputParserES4_N15cmProcessOutput8EncodingEE3$_2ZNS0_10RunProcessES2_S4_S4_S6_E3$_3ESt10unique_ptrI20cmUVStreamReadHandleSt14default_deleteISA_EEP11uv_stream_sT_T0_ENUlP11uv_handle_smP8uv_buf_tE_8__invokeESJ_mSL_"(ptr nocapture noundef readonly %0, i64 noundef %1, ptr nocapture noundef writeonly %2) #0 align 2 {
  %.val = load ptr, ptr %0, align 8
  tail call void @_ZNSt6vectorIcSaIcEE6resizeEm(ptr noundef nonnull align 8 dereferenceable(24) %.val, i64 noundef %1)
  %4 = load ptr, ptr %.val, align 8
  store ptr %4, ptr %2, align 8
  %5 = getelementptr inbounds i8, ptr %2, i64 8
  store i64 %1, ptr %5, align 8
  ret void
}